target datalayout = "e-m:e-p270:32:32-p271:32:32-p272:64:64-i64:64-i128:128-f80:128-n8:16:32:64-S128"
target triple = "x86_64-pc-linux-gnu"

%struct._lv_buttonmatrix_t = type { %struct._lv_obj_t, ptr, ptr, ptr, i32, i32, i32, i8 }
%struct._lv_obj_t = type { ptr, ptr, ptr, ptr, ptr, %struct.lv_area_t, i32, i16, i16 }
%struct.lv_area_t = type { i32, i32, i32, i32 }

; Function Attrs: nounwind uwtable
define void @lv_buttonmatrix_clear_button_ctrl(ptr noundef %0, i32 noundef %1, i32 noundef %2) #0 {
  %4 = alloca ptr, align 8
  %5 = alloca i32, align 4
  %6 = alloca i32, align 4
  %7 = alloca ptr, align 8
  %8 = alloca i32, align 4
  store ptr %0, ptr %4, align 8, !tbaa !3
  store i32 %1, ptr %5, align 4, !tbaa !18
  store i32 %2, ptr %6, align 4, !tbaa !18
  br label %9

9:                                                ; preds = %3
  br label %10

10:                                               ; preds = %9
  call void @llvm.lifetime.start.p0(i64 8, ptr %7) #4
  %11 = load ptr, ptr %4, align 8, !tbaa !3
  store ptr %11, ptr %7, align 8, !tbaa !3
  %12 = load i32, ptr %5, align 4, !tbaa !18
  %13 = load ptr, ptr %7, align 8, !tbaa !3
  %14 = getelementptr inbounds nuw %struct._lv_buttonmatrix_t, ptr %13, i32 0, i32 4
  %15 = load i32, ptr %14, align 8, !tbaa !7
  %16 = icmp uge i32 %12, %15
  br i1 %16, label %17, label %18

17:                                               ; preds = %10
  store i32 1, ptr %8, align 4
  br label %37

18:                                               ; preds = %10
  %19 = load i32, ptr %6, align 4, !tbaa !18
  %20 = xor i32 %19, -1
  %21 = load ptr, ptr %7, align 8, !tbaa !3
  %22 = getelementptr inbounds nuw %struct._lv_buttonmatrix_t, ptr %21, i32 0, i32 3
  %23 = load ptr, ptr %22, align 8, !tbaa !16
  %24 = load i32, ptr %5, align 4, !tbaa !18
  %25 = zext i32 %24 to i64
  %26 = getelementptr inbounds nuw i32, ptr %23, i64 %25
  %27 = load i32, ptr %26, align 4, !tbaa !18
  %28 = and i32 %27, %20
  store i32 %28, ptr %26, align 4, !tbaa !18
  %29 = load ptr, ptr %4, align 8, !tbaa !3
  %30 = load i32, ptr %5, align 4, !tbaa !18
  call void @invalidate_button_area(ptr noundef %29, i32 noundef %30)
  %31 = load i32, ptr %6, align 4, !tbaa !18
  %32 = and i32 %31, 1024
  %33 = icmp ne i32 %32, 0
  br i1 %33, label %34, label %36

34:                                               ; preds = %18
  %35 = load ptr, ptr %4, align 8, !tbaa !3
  call void @lv_obj_refresh_ext_draw_size(ptr noundef %35)
  br label %36

36:                                               ; preds = %34, %18
  store i32 0, ptr %8, align 4
  br label %37

37:                                               ; preds = %36, %17
  call void @llvm.lifetime.end.p0(i64 8, ptr %7) #4
  %38 = load i32, ptr %8, align 4
  switch i32 %38, label %40 [
    i32 0, label %39
    i32 1, label %39
  ]

39:                                               ; preds = %37, %37
  ret void

40:                                               ; preds = %37
  unreachable
}