; Function Attrs: nounwind uwtable
define void @lv_buttonmatrix_clear_button_ctrl(ptr noundef %0, i32 noundef %1, i32 noundef %2) local_unnamed_addr #0 {
  %4 = getelementptr inbounds nuw i8, ptr %0, i64 88
  %5 = load i32, ptr %4, align 8, !tbaa !3
  %.not = icmp ult i32 %1, %5
  br i1 %.not, label %6, label %16

6:                                                ; preds = %3
  %7 = xor i32 %2, -1
  %8 = getelementptr inbounds nuw i8, ptr %0, i64 80
  %9 = load ptr, ptr %8, align 8, !tbaa !15
  %10 = zext i32 %1 to i64
  %11 = getelementptr inbounds nuw i32, ptr %9, i64 %10
  %12 = load i32, ptr %11, align 4, !tbaa !21
  %13 = and i32 %12, %7
  store i32 %13, ptr %11, align 4, !tbaa !21
  tail call fastcc void @invalidate_button_area(ptr noundef nonnull %0, i32 noundef %1)
  %14 = and i32 %2, 1024
  %.not9 = icmp eq i32 %14, 0
  br i1 %.not9, label %16, label %15

15:                                               ; preds = %6
  tail call void @lv_obj_refresh_ext_draw_size(ptr noundef nonnull %0) #7
  br label %16

16:                                               ; preds = %6, %15, %3
  ret void
}